target datalayout = "e-m:e-p270:32:32-p271:32:32-p272:64:64-i64:64-i128:128-f80:128-n8:16:32:64-S128"
target triple = "x86_64-pc-linux-gnu"

%struct.AVOption = type { ptr, ptr, i32, i32, %union.anon, double, double, i32, ptr }
%union.anon = type { i64 }

@.str = private unnamed_addr constant [49 x i8] c"Invalid negative size value %dx%d for size '%s'\0A\00", align 1

; Function Attrs: nounwind uwtable
define i32 @av_opt_set_image_size(ptr noundef %0, ptr noundef %1, i32 noundef %2, i32 noundef %3, i32 noundef %4) #0 {
  %6 = alloca i32, align 4
  %7 = alloca ptr, align 8
  %8 = alloca ptr, align 8
  %9 = alloca i32, align 4
  %10 = alloca i32, align 4
  %11 = alloca i32, align 4
  %12 = alloca ptr, align 8
  %13 = alloca ptr, align 8
  %14 = alloca i32, align 4
  %15 = alloca i32, align 4
  store ptr %0, ptr %7, align 8, !tbaa !4
  store ptr %1, ptr %8, align 8, !tbaa !19
  store i32 %2, ptr %9, align 4, !tbaa !20
  store i32 %3, ptr %10, align 4, !tbaa !20
  store i32 %4, ptr %11, align 4, !tbaa !20
  call void @llvm.lifetime.start.p0(i64 8, ptr %12) #11
  call void @llvm.lifetime.start.p0(i64 8, ptr %13) #11
  call void @llvm.lifetime.start.p0(i64 4, ptr %14) #11
  %16 = load ptr, ptr %7, align 8, !tbaa !4
  %17 = load ptr, ptr %8, align 8, !tbaa !19
  %18 = load i32, ptr %11, align 4, !tbaa !20
  %19 = call i32 @opt_set_init(ptr noundef %16, ptr noundef %17, i32 noundef %18, i32 noundef 12, ptr noundef null, ptr noundef %12, ptr noundef %13)
  store i32 %19, ptr %14, align 4, !tbaa !20
  %20 = load i32, ptr %14, align 4, !tbaa !20
  %21 = icmp slt i32 %20, 0
  br i1 %21, label %22, label %24

22:                                               ; preds = %5
  %23 = load i32, ptr %14, align 4, !tbaa !20
  store i32 %23, ptr %6, align 4
  store i32 1, ptr %15, align 4
  br label %44

24:                                               ; preds = %5
  %25 = load i32, ptr %9, align 4, !tbaa !20
  %26 = icmp slt i32 %25, 0
  br i1 %26, label %30, label %27

27:                                               ; preds = %24
  %28 = load i32, ptr %10, align 4, !tbaa !20
  %29 = icmp slt i32 %28, 0
  br i1 %29, label %30, label %37

30:                                               ; preds = %27, %24
  %31 = load ptr, ptr %7, align 8, !tbaa !4
  %32 = load i32, ptr %9, align 4, !tbaa !20
  %33 = load i32, ptr %10, align 4, !tbaa !20
  %34 = load ptr, ptr %12, align 8, !tbaa !8
  %35 = getelementptr inbounds nuw %struct.AVOption, ptr %34, i32 0, i32 0
  %36 = load ptr, ptr %35, align 8, !tbaa !16
  call void (ptr, i32, ptr, ...) @av_log(ptr noundef %31, i32 noundef 16, ptr noundef @.str, i32 noundef %32, i32 noundef %33, ptr noundef %36)
  store i32 -22, ptr %6, align 4
  store i32 1, ptr %15, align 4
  br label %44

37:                                               ; preds = %27
  %38 = load i32, ptr %9, align 4, !tbaa !20
  %39 = load ptr, ptr %13, align 8, !tbaa !30
  %40 = getelementptr inbounds i32, ptr %39, i64 0
  store i32 %38, ptr %40, align 4, !tbaa !20
  %41 = load i32, ptr %10, align 4, !tbaa !20
  %42 = load ptr, ptr %13, align 8, !tbaa !30
  %43 = getelementptr inbounds i32, ptr %42, i64 1
  store i32 %41, ptr %43, align 4, !tbaa !20
  store i32 0, ptr %6, align 4
  store i32 1, ptr %15, align 4
  br label %44

44:                                               ; preds = %37, %30, %22
  call void @llvm.lifetime.end.p0(i64 4, ptr %14) #11
  call void @llvm.lifetime.end.p0(i64 8, ptr %13) #11
  call void @llvm.lifetime.end.p0(i64 8, ptr %12) #11
  %45 = load i32, ptr %6, align 4
  ret i32 %45
}