; Function Attrs: nounwind uwtable
define range(i32 -1414549496, 1) i32 @av_opt_set_image_size(ptr noundef %0, ptr noundef %1, i32 noundef %2, i32 noundef %3, i32 noundef %4) local_unnamed_addr #2 {
  %6 = alloca ptr, align 8
  %7 = alloca ptr, align 8
  call void @llvm.lifetime.start.p0(i64 8, ptr nonnull %6) #18
  call void @llvm.lifetime.start.p0(i64 8, ptr nonnull %7) #18
  %8 = call fastcc i32 @opt_set_init(ptr noundef %0, ptr noundef %1, i32 noundef %4, i32 noundef 12, ptr noundef null, ptr noundef nonnull %6, ptr noundef %7)
  %9 = icmp slt i32 %8, 0
  br i1 %9, label %18, label %10

10:                                               ; preds = %5
  %11 = or i32 %3, %2
  %or.cond.not = icmp sgt i32 %11, -1
  br i1 %or.cond.not, label %15, label %12

12:                                               ; preds = %10
  %13 = load ptr, ptr %6, align 8, !tbaa !17
  %14 = load ptr, ptr %13, align 8, !tbaa !14
  call void (ptr, i32, ptr, ...) @av_log(ptr noundef %0, i32 noundef 16, ptr noundef nonnull @.str, i32 noundef %2, i32 noundef %3, ptr noundef %14) #18
  br label %18

15:                                               ; preds = %10
  %16 = load ptr, ptr %7, align 8, !tbaa !53
  store i32 %2, ptr %16, align 4, !tbaa !26
  %17 = getelementptr inbounds nuw i8, ptr %16, i64 4
  store i32 %3, ptr %17, align 4, !tbaa !26
  br label %18

18:                                               ; preds = %5, %15, %12
  %.0 = phi i32 [ -22, %12 ], [ 0, %15 ], [ %8, %5 ]
  call void @llvm.lifetime.end.p0(i64 8, ptr nonnull %7) #18
  call void @llvm.lifetime.end.p0(i64 8, ptr nonnull %6) #18
  ret i32 %.0
}